target datalayout = "e-m:e-p270:32:32-p271:32:32-p272:64:64-i64:64-i128:128-f80:128-n8:16:32:64-S128"
target triple = "x86_64-pc-linux-gnu"

%struct._lv_scale_section_t = type { ptr, ptr, ptr, i32, i32, i32, i32, i32, i32, i32, i32, %struct.lv_point_t, %struct.lv_point_t }
%struct.lv_point_t = type { i32, i32 }

; Function Attrs: nounwind uwtable
define void @lv_scale_section_set_range(ptr noundef %0, i32 noundef %1, i32 noundef %2) #0 {
  %4 = alloca ptr, align 8
  %5 = alloca i32, align 4
  %6 = alloca i32, align 4
  store ptr %0, ptr %4, align 8, !tbaa !3
  store i32 %1, ptr %5, align 4, !tbaa !25
  store i32 %2, ptr %6, align 4, !tbaa !25
  %7 = load ptr, ptr %4, align 8, !tbaa !3
  %8 = icmp eq ptr null, %7
  br i1 %8, label %9, label %10

9:                                                ; preds = %3
  br label %17

10:                                               ; preds = %3
  %11 = load i32, ptr %5, align 4, !tbaa !25
  %12 = load ptr, ptr %4, align 8, !tbaa !3
  %13 = getelementptr inbounds nuw %struct._lv_scale_section_t, ptr %12, i32 0, i32 3
  store i32 %11, ptr %13, align 8, !tbaa !42
  %14 = load i32, ptr %6, align 4, !tbaa !25
  %15 = load ptr, ptr %4, align 8, !tbaa !3
  %16 = getelementptr inbounds nuw %struct._lv_scale_section_t, ptr %15, i32 0, i32 4
  store i32 %14, ptr %16, align 4, !tbaa !43
  br label %17

17:                                               ; preds = %10, %9
  ret void
}