; Function Attrs: mustprogress nofree norecurse nosync nounwind willreturn memory(argmem: write) uwtable
define void @lv_scale_section_set_range(ptr noundef writeonly %0, i32 noundef %1, i32 noundef %2) local_unnamed_addr #3 {
  %4 = icmp eq ptr %0, null
  br i1 %4, label %8, label %5

5:                                                ; preds = %3
  %6 = getelementptr inbounds nuw i8, ptr %0, i64 24
  store i32 %1, ptr %6, align 8, !tbaa !34
  %7 = getelementptr inbounds nuw i8, ptr %0, i64 28
  store i32 %2, ptr %7, align 4, !tbaa !35
  br label %8

8:                                                ; preds = %3, %5
  ret void
}